target datalayout = "e-m:e-p270:32:32-p271:32:32-p272:64:64-i64:64-i128:128-f80:128-n8:16:32:64-S128"
target triple = "x86_64-pc-linux-gnu"

%"class.cv::detail::tracking::feature::CvFeatureParams" = type <{ %"class.cv::detail::tracking::feature::CvParams", i32, i32, i32, [4 x i8] }>
%"class.cv::detail::tracking::feature::CvParams" = type { ptr }
%"class.cv::detail::tracking::feature::CvHaarFeatureParams" = type { %"class.cv::detail::tracking::feature::CvFeatureParams.base", i8, [3 x i8] }
%"class.cv::detail::tracking::feature::CvFeatureParams.base" = type <{ %"class.cv::detail::tracking::feature::CvParams", i32, i32, i32 }>

@_ZTVN2cv6detail8tracking7feature8CvParamsE = linkonce_odr hidden unnamed_addr constant { [4 x ptr] } { [4 x ptr] [ptr null, ptr @_ZTIN2cv6detail8tracking7feature8CvParamsE, ptr @_ZN2cv6detail8tracking7feature8CvParamsD2Ev, ptr @_ZN2cv6detail8tracking7feature8CvParamsD0Ev] }, comdat, align 8

; Function Attrs: mustprogress nounwind uwtable
define hidden void @_ZN2cv6detail8tracking7feature8CvParamsC2Ev(ptr noundef nonnull align 8 dereferenceable(8) %0) unnamed_addr #0 align 2 {
  %2 = alloca ptr, align 8
  store ptr %0, ptr %2, align 8, !tbaa !3
  %3 = load ptr, ptr %2, align 8
  store ptr getelementptr inbounds inrange(-16, 16) ({ [4 x ptr] }, ptr @_ZTVN2cv6detail8tracking7feature8CvParamsE, i32 0, i32 0, i32 2), ptr %3, align 8, !tbaa !8
  ret void
}

; Function Attrs: mustprogress nounwind uwtable
define hidden void @_ZN2cv6detail8tracking7feature15CvFeatureParamsC2Ev(ptr noundef nonnull align 8 dereferenceable(20) %0) unnamed_addr #0 align 2 {
  %2 = alloca ptr, align 8
  store ptr %0, ptr %2, align 8, !tbaa !10
  %3 = load ptr, ptr %2, align 8
  call void @_ZN2cv6detail8tracking7feature8CvParamsC2Ev(ptr noundef nonnull align 8 dereferenceable(8) %3)
  store ptr getelementptr inbounds inrange(-16, 16) ({ [4 x ptr] }, ptr @_ZTVN2cv6detail8tracking7feature15CvFeatureParamsE, i32 0, i32 0, i32 2), ptr %3, align 8, !tbaa !8
  %4 = getelementptr inbounds nuw %"class.cv::detail::tracking::feature::CvFeatureParams", ptr %3, i32 0, i32 1
  store i32 0, ptr %4, align 8, !tbaa !12
  %5 = getelementptr inbounds nuw %"class.cv::detail::tracking::feature::CvFeatureParams", ptr %3, i32 0, i32 2
  store i32 1, ptr %5, align 4, !tbaa !16
  %6 = getelementptr inbounds nuw %"class.cv::detail::tracking::feature::CvFeatureParams", ptr %3, i32 0, i32 3
  store i32 1, ptr %6, align 8, !tbaa !17
  ret void
}

; Function Attrs: mustprogress nounwind uwtable
define hidden void @_ZN2cv6detail8tracking7feature19CvHaarFeatureParamsC2Ev(ptr noundef nonnull align 8 dereferenceable(21) %0) unnamed_addr #0 align 2 {
  %2 = alloca ptr, align 8
  store ptr %0, ptr %2, align 8, !tbaa !53
  %3 = load ptr, ptr %2, align 8
  call void @_ZN2cv6detail8tracking7feature15CvFeatureParamsC2Ev(ptr noundef nonnull align 8 dereferenceable(20) %3)
  store ptr getelementptr inbounds inrange(-16, 16) ({ [4 x ptr] }, ptr @_ZTVN2cv6detail8tracking7feature19CvHaarFeatureParamsE, i32 0, i32 0, i32 2), ptr %3, align 8, !tbaa !8
  %4 = getelementptr inbounds nuw %"class.cv::detail::tracking::feature::CvHaarFeatureParams", ptr %3, i32 0, i32 1
  store i8 0, ptr %4, align 4, !tbaa !55
  ret void
}