; Function Attrs: mustprogress nofree norecurse nosync nounwind willreturn memory(argmem: write) uwtable
define hidden void @_ZN2cv6detail8tracking7feature19CvHaarFeatureParamsC2Ev(ptr noundef nonnull writeonly align 8 captures(none) dereferenceable(21) initializes((0, 21)) %0) unnamed_addr #0 align 2 {
  %2 = getelementptr inbounds nuw i8, ptr %0, i64 8
  store i32 0, ptr %2, align 8, !tbaa !6
  %3 = getelementptr inbounds nuw i8, ptr %0, i64 12
  store i32 1, ptr %3, align 4, !tbaa !11
  %4 = getelementptr inbounds nuw i8, ptr %0, i64 16
  store i32 1, ptr %4, align 8, !tbaa !12
  store ptr getelementptr inbounds nuw inrange(-16, 16) (i8, ptr @_ZTVN2cv6detail8tracking7feature19CvHaarFeatureParamsE, i64 16), ptr %0, align 8, !tbaa !3
  %5 = getelementptr inbounds nuw i8, ptr %0, i64 20
  store i8 0, ptr %5, align 4, !tbaa !42
  ret void
}